; Function Attrs: mustprogress nounwind uwtable
define hidden void @_ZN7nmethod21clean_exception_cacheEv(ptr noundef nonnull align 8 dereferenceable(214) %0) local_unnamed_addr #0 align 2 {
  %2 = getelementptr inbounds i8, ptr %0, i64 104
  %3 = load volatile ptr, ptr %2, align 8
  tail call void asm sideeffect "", "~{memory},~{dirflag},~{fpsr},~{flags}"() #23, !srcloc !6
  %.not15 = icmp eq ptr %3, null
  br i1 %.not15, label %._crit_edge, label %.lr.ph

.lr.ph:                                           ; preds = %1, %.backedge
  %.017 = phi ptr [ %.0.be, %.backedge ], [ null, %1 ]
  %.01316 = phi ptr [ %.013.be, %.backedge ], [ %3, %1 ]
  %4 = getelementptr inbounds i8, ptr %.01316, i64 272
  %5 = load volatile ptr, ptr %4, align 8
  %6 = load ptr, ptr %.01316, align 8
  %7 = getelementptr inbounds i8, ptr %6, i64 152
  %8 = load ptr, ptr %7, align 8
  %9 = tail call noundef zeroext i1 @_ZNK15ClassLoaderData8is_aliveEv(ptr noundef nonnull align 8 dereferenceable(160) %8) #23
  br i1 %9, label %.backedge, label %10

10:                                               ; preds = %.lr.ph
  %11 = icmp eq ptr %.017, null
  br i1 %11, label %12, label %16

12:                                               ; preds = %10
  %13 = tail call noundef ptr asm sideeffect "lock cmpxchgq $1,($3)", "={ax},r,{ax},r,~{cc},~{memory},~{dirflag},~{fpsr},~{flags}"(ptr %5, ptr nonnull %.01316, ptr nonnull %2) #23, !srcloc !15
  %.not14 = icmp eq ptr %13, %.01316
  br i1 %.not14, label %18, label %14

14:                                               ; preds = %12
  %15 = load volatile ptr, ptr %2, align 8
  tail call void asm sideeffect "", "~{memory},~{dirflag},~{fpsr},~{flags}"() #23, !srcloc !6
  br label %.backedge

.backedge:                                        ; preds = %18, %.lr.ph, %14
  %.013.be = phi ptr [ %15, %14 ], [ %5, %.lr.ph ], [ %5, %18 ]
  %.0.be = phi ptr [ null, %14 ], [ %.01316, %.lr.ph ], [ %.017, %18 ]
  %.not = icmp eq ptr %.013.be, null
  br i1 %.not, label %._crit_edge, label %.lr.ph, !llvm.loop !17

16:                                               ; preds = %10
  %17 = getelementptr inbounds i8, ptr %.017, i64 272
  store volatile ptr %5, ptr %17, align 8
  br label %18

18:                                               ; preds = %12, %16
  tail call void @_ZN9CodeCache23release_exception_cacheEP14ExceptionCache(ptr noundef nonnull %.01316) #23
  br label %.backedge

._crit_edge:                                      ; preds = %.backedge, %1
  ret void
}